target datalayout = "e-m:e-p270:32:32-p271:32:32-p272:64:64-i64:64-i128:128-f80:128-n8:16:32:64-S128"
target triple = "x86_64-pc-linux-gnu"

@.str = private unnamed_addr constant [101 x i8] c"generated/home/dtcxzyw/WorkSpace/Projects/compilers/llvm-opt-benchmark/bench/hdf5/hdf5/src/H5EAhdr.c\00", align 1
@H5E_EARRAY_g = external global i64, align 8
@__func__.H5EA__hdr_modified = private unnamed_addr constant [19 x i8] c"H5EA__hdr_modified\00", align 1
@H5E_CANTMARKDIRTY_g = external global i64, align 8
@.str.17 = private unnamed_addr constant [48 x i8] c"unable to mark extensible array header as dirty\00", align 1

; Function Attrs: nounwind uwtable
define i32 @H5EA__hdr_modified(ptr noundef %0) #0 {
  %2 = alloca ptr, align 8
  %3 = alloca i32, align 4
  %4 = alloca i8, align 1
  store ptr %0, ptr %2, align 8
  store i32 0, ptr %3, align 4
  store i8 0, ptr %4, align 1
  %5 = load ptr, ptr %2, align 8
  %6 = call i32 @H5AC_mark_entry_dirty(ptr noundef %5)
  %7 = icmp slt i32 %6, 0
  br i1 %7, label %8, label %23

8:                                                ; preds = %1
  br label %9

9:                                                ; preds = %8
  br label %10

10:                                               ; preds = %9
  br label %11

11:                                               ; preds = %10
  %12 = load i64, ptr @H5E_EARRAY_g, align 8
  %13 = load i64, ptr @H5E_CANTMARKDIRTY_g, align 8
  %14 = call i32 (ptr, ptr, i32, i64, i64, ptr, ...) @H5E_printf_stack(ptr noundef @.str, ptr noundef @__func__.H5EA__hdr_modified, i32 noundef 593, i64 noundef %12, i64 noundef %13, ptr noundef @.str.17)
  br label %15

15:                                               ; preds = %11
  store i8 1, ptr %4, align 1
  %16 = load i8, ptr %4, align 1
  %17 = trunc i8 %16 to i1
  %18 = zext i1 %17 to i8
  store i8 %18, ptr %4, align 1
  br label %19

19:                                               ; preds = %15
  br label %20

20:                                               ; preds = %19
  store i32 -1, ptr %3, align 4
  br label %24

21:                                               ; No predecessors!
  br label %22

22:                                               ; preds = %21
  br label %23

23:                                               ; preds = %22, %1
  br label %24

24:                                               ; preds = %23, %20
  %25 = load i32, ptr %3, align 4
  ret i32 %25
}